target datalayout = "e-m:e-p270:32:32-p271:32:32-p272:64:64-i64:64-i128:128-f80:128-n8:16:32:64-S128"
target triple = "x86_64-pc-linux-gnu"

%"struct.llvm::EVT" = type { %"class.llvm::MVT", ptr }
%"class.llvm::MVT" = type { i16 }
%"class.llvm::ArrayRef.389" = type { ptr, i64 }
%"class.llvm::ElementCount" = type { %"class.llvm::details::FixedOrScalableQuantity.base.442", [3 x i8] }
%"class.llvm::details::FixedOrScalableQuantity.base.442" = type <{ i32, i8 }>
%"class.llvm::details::FixedOrScalableQuantity.441" = type <{ i32, i8, [3 x i8] }>

; Function Attrs: mustprogress nounwind uwtable
define linkonce_odr hidden void @_ZN4llvm7details23FixedOrScalableQuantityINS_12ElementCountEjEC2Ejb(ptr noundef nonnull align 4 dereferenceable(5) %0, i32 noundef %1, i1 noundef zeroext %2) unnamed_addr #0 comdat align 2 {
  %4 = alloca ptr, align 8
  %5 = alloca i32, align 4
  %6 = alloca i8, align 1
  store ptr %0, ptr %4, align 8
  store i32 %1, ptr %5, align 4
  %7 = zext i1 %2 to i8
  store i8 %7, ptr %6, align 1
  %8 = load ptr, ptr %4, align 8
  %9 = getelementptr inbounds nuw %"class.llvm::details::FixedOrScalableQuantity.441", ptr %8, i32 0, i32 0
  %10 = load i32, ptr %5, align 4
  store i32 %10, ptr %9, align 4
  %11 = getelementptr inbounds nuw %"class.llvm::details::FixedOrScalableQuantity.441", ptr %8, i32 0, i32 1
  %12 = load i8, ptr %6, align 1
  %13 = trunc i8 %12 to i1
  %14 = zext i1 %13 to i8
  store i8 %14, ptr %11, align 4
  ret void
}

; Function Attrs: mustprogress nounwind uwtable
define linkonce_odr hidden void @_ZN4llvm12ElementCountC2Ejb(ptr noundef nonnull align 4 dereferenceable(5) %0, i32 noundef %1, i1 noundef zeroext %2) unnamed_addr #0 comdat align 2 {
  %4 = alloca ptr, align 8
  %5 = alloca i32, align 4
  %6 = alloca i8, align 1
  store ptr %0, ptr %4, align 8
  store i32 %1, ptr %5, align 4
  %7 = zext i1 %2 to i8
  store i8 %7, ptr %6, align 1
  %8 = load ptr, ptr %4, align 8
  %9 = load i32, ptr %5, align 4
  %10 = load i8, ptr %6, align 1
  %11 = trunc i8 %10 to i1
  call void @_ZN4llvm7details23FixedOrScalableQuantityINS_12ElementCountEjEC2Ejb(ptr noundef nonnull align 4 dereferenceable(5) %8, i32 noundef %9, i1 noundef zeroext %11)
  ret void
}

; Function Attrs: mustprogress nounwind uwtable
define linkonce_odr hidden i64 @_ZN4llvm12ElementCount3getEjb(i32 noundef %0, i1 noundef zeroext %1) #0 comdat align 2 {
  %3 = alloca %"class.llvm::ElementCount", align 4
  %4 = alloca i32, align 4
  %5 = alloca i8, align 1
  store i32 %0, ptr %4, align 4
  %6 = zext i1 %1 to i8
  store i8 %6, ptr %5, align 1
  %7 = load i32, ptr %4, align 4
  %8 = load i8, ptr %5, align 1
  %9 = trunc i8 %8 to i1
  call void @_ZN4llvm12ElementCountC2Ejb(ptr noundef nonnull align 4 dereferenceable(5) %3, i32 noundef %7, i1 noundef zeroext %9)
  %10 = load i64, ptr %3, align 4
  ret i64 %10
}

; Function Attrs: mustprogress nounwind uwtable
define linkonce_odr hidden noundef i32 @_ZNK4llvm3MVT23getVectorMinNumElementsEv(ptr noundef nonnull align 2 dereferenceable(2) %0) #0 comdat align 2 {
  %2 = alloca ptr, align 8
  %3 = alloca i32, align 4
  store ptr %0, ptr %2, align 8
  %4 = load ptr, ptr %2, align 8
  %5 = getelementptr inbounds nuw %"class.llvm::MVT", ptr %4, i32 0, i32 0
  %6 = load i16, ptr %5, align 2
  %7 = zext i16 %6 to i32
  %8 = sub nsw i32 %7, 1
  %9 = sext i32 %8 to i64
  %10 = getelementptr inbounds [240 x i16], ptr @_ZZNK4llvm3MVT23getVectorMinNumElementsEvE10NElemTable, i64 0, i64 %9
  %11 = load i16, ptr %10, align 2
  %12 = zext i16 %11 to i32
  store i32 %12, ptr %3, align 4
  %13 = load i32, ptr %3, align 4
  ret i32 %13
}

; Function Attrs: mustprogress nounwind uwtable
define linkonce_odr hidden i64 @_ZNK4llvm3MVT21getVectorElementCountEv(ptr noundef nonnull align 2 dereferenceable(2) %0) #0 comdat align 2 {
  %2 = alloca %"class.llvm::ElementCount", align 4
  %3 = alloca ptr, align 8
  store ptr %0, ptr %3, align 8
  %4 = load ptr, ptr %3, align 8
  %5 = call noundef i32 @_ZNK4llvm3MVT23getVectorMinNumElementsEv(ptr noundef nonnull align 2 dereferenceable(2) %4)
  %6 = call noundef zeroext i1 @_ZNK4llvm3MVT16isScalableVectorEv(ptr noundef nonnull align 2 dereferenceable(2) %4)
  %7 = call i64 @_ZN4llvm12ElementCount3getEjb(i32 noundef %5, i1 noundef zeroext %6)
  %8 = trunc i64 %7 to i40
  store i40 %8, ptr %2, align 4
  %9 = load i64, ptr %2, align 4
  ret i64 %9
}

; Function Attrs: mustprogress nounwind uwtable
define linkonce_odr hidden void @_ZN4llvm3MVTC2ENS0_15SimpleValueTypeE(ptr noundef nonnull align 2 dereferenceable(2) %0, i16 noundef zeroext %1) unnamed_addr #0 comdat align 2 {
  %3 = alloca ptr, align 8
  %4 = alloca i16, align 2
  store ptr %0, ptr %3, align 8
  store i16 %1, ptr %4, align 2
  %5 = load ptr, ptr %3, align 8
  %6 = getelementptr inbounds nuw %"class.llvm::MVT", ptr %5, i32 0, i32 0
  %7 = load i16, ptr %4, align 2
  store i16 %7, ptr %6, align 2
  ret void
}

; Function Attrs: mustprogress nounwind uwtable
define linkonce_odr hidden noundef i32 @_ZNK4llvm7details23FixedOrScalableQuantityINS_12ElementCountEjE16getKnownMinValueEv(ptr noundef nonnull align 4 dereferenceable(5) %0) #0 comdat align 2 {
  %2 = alloca ptr, align 8
  store ptr %0, ptr %2, align 8
  %3 = load ptr, ptr %2, align 8
  %4 = getelementptr inbounds nuw %"class.llvm::details::FixedOrScalableQuantity.441", ptr %3, i32 0, i32 0
  %5 = load i32, ptr %4, align 4
  ret i32 %5
}

; Function Attrs: mustprogress nounwind uwtable
define linkonce_odr hidden i64 @_ZNK4llvm3EVT21getVectorElementCountEv(ptr noundef nonnull align 8 dereferenceable(16) %0) #0 comdat align 2 {
  %2 = alloca %"class.llvm::ElementCount", align 4
  %3 = alloca ptr, align 8
  store ptr %0, ptr %3, align 8
  %4 = load ptr, ptr %3, align 8
  %5 = call noundef zeroext i1 @_ZNK4llvm3EVT8isSimpleEv(ptr noundef nonnull align 8 dereferenceable(16) %4)
  br i1 %5, label %6, label %10

6:                                                ; preds = %1
  %7 = getelementptr inbounds nuw %"struct.llvm::EVT", ptr %4, i32 0, i32 0
  %8 = call i64 @_ZNK4llvm3MVT21getVectorElementCountEv(ptr noundef nonnull align 2 dereferenceable(2) %7)
  %9 = trunc i64 %8 to i40
  store i40 %9, ptr %2, align 4
  br label %13

10:                                               ; preds = %1
  %11 = call i64 @_ZNK4llvm3EVT29getExtendedVectorElementCountEv(ptr noundef nonnull align 8 dereferenceable(16) %4) #17
  %12 = trunc i64 %11 to i40
  store i40 %12, ptr %2, align 4
  br label %13

13:                                               ; preds = %10, %6
  %14 = load i64, ptr %2, align 4
  ret i64 %14
}

; Function Attrs: mustprogress nounwind uwtable
define linkonce_odr hidden void @_ZN4llvm3EVTC2ENS_3MVTE(ptr noundef nonnull align 8 dereferenceable(16) %0, i16 %1) unnamed_addr #0 comdat align 2 {
  %3 = alloca %"class.llvm::MVT", align 2
  %4 = alloca ptr, align 8
  %5 = getelementptr inbounds nuw %"class.llvm::MVT", ptr %3, i32 0, i32 0
  store i16 %1, ptr %5, align 2
  store ptr %0, ptr %4, align 8
  %6 = load ptr, ptr %4, align 8
  %7 = getelementptr inbounds nuw %"struct.llvm::EVT", ptr %6, i32 0, i32 0
  call void @llvm.memcpy.p0.p0.i64(ptr align 8 %7, ptr align 2 %3, i64 2, i1 false)
  %8 = getelementptr inbounds nuw %"struct.llvm::EVT", ptr %6, i32 0, i32 1
  store ptr null, ptr %8, align 8
  ret void
}

; Function Attrs: mustprogress nounwind uwtable
define linkonce_odr hidden i16 @_ZNK4llvm3MVT20getVectorElementTypeEv(ptr noundef nonnull align 2 dereferenceable(2) %0) #0 comdat align 2 {
  %2 = alloca %"class.llvm::MVT", align 2
  %3 = alloca ptr, align 8
  %4 = alloca i16, align 2
  store ptr %0, ptr %3, align 8
  %5 = load ptr, ptr %3, align 8
  %6 = getelementptr inbounds nuw %"class.llvm::MVT", ptr %5, i32 0, i32 0
  %7 = load i16, ptr %6, align 2
  %8 = zext i16 %7 to i32
  %9 = sub nsw i32 %8, 1
  %10 = sext i32 %9 to i64
  %11 = getelementptr inbounds [240 x i16], ptr @_ZZNK4llvm3MVT20getVectorElementTypeEvE10EltTyTable, i64 0, i64 %10
  %12 = load i16, ptr %11, align 2
  store i16 %12, ptr %4, align 2
  %13 = load i16, ptr %4, align 2
  call void @_ZN4llvm3MVTC2ENS0_15SimpleValueTypeE(ptr noundef nonnull align 2 dereferenceable(2) %2, i16 noundef zeroext %13)
  %14 = getelementptr inbounds nuw %"class.llvm::MVT", ptr %2, i32 0, i32 0
  %15 = load i16, ptr %14, align 2
  ret i16 %15
}

; Function Attrs: mustprogress nounwind uwtable
define linkonce_odr hidden noundef zeroext i1 @_ZNK4llvm3MVT16isScalableVectorEv(ptr noundef nonnull align 2 dereferenceable(2) %0) #0 comdat align 2 {
  %2 = alloca ptr, align 8
  store ptr %0, ptr %2, align 8
  %3 = load ptr, ptr %2, align 8
  %4 = getelementptr inbounds nuw %"class.llvm::MVT", ptr %3, i32 0, i32 0
  %5 = load i16, ptr %4, align 2
  %6 = zext i16 %5 to i32
  %7 = icmp sge i32 %6, 137
  br i1 %7, label %8, label %13

8:                                                ; preds = %1
  %9 = getelementptr inbounds nuw %"class.llvm::MVT", ptr %3, i32 0, i32 0
  %10 = load i16, ptr %9, align 2
  %11 = zext i16 %10 to i32
  %12 = icmp sle i32 %11, 189
  br label %13

13:                                               ; preds = %8, %1
  %14 = phi i1 [ false, %1 ], [ %12, %8 ]
  ret i1 %14
}

; Function Attrs: mustprogress nounwind uwtable
define linkonce_odr hidden noundef zeroext i1 @_ZNK4llvm3EVT8isSimpleEv(ptr noundef nonnull align 8 dereferenceable(16) %0) #0 comdat align 2 {
  %2 = alloca ptr, align 8
  store ptr %0, ptr %2, align 8
  %3 = load ptr, ptr %2, align 8
  %4 = getelementptr inbounds nuw %"struct.llvm::EVT", ptr %3, i32 0, i32 0
  %5 = getelementptr inbounds nuw %"class.llvm::MVT", ptr %4, i32 0, i32 0
  %6 = load i16, ptr %5, align 8
  %7 = zext i16 %6 to i32
  %8 = icmp ne i32 %7, 0
  ret i1 %8
}

; Function Attrs: mustprogress nounwind uwtable
define linkonce_odr hidden noundef nonnull align 4 dereferenceable(4) ptr @_ZNK4llvm8ArrayRefIjEixEm(ptr noundef nonnull align 8 dereferenceable(16) %0, i64 noundef %1) #0 comdat align 2 {
  %3 = alloca ptr, align 8
  %4 = alloca i64, align 8
  store ptr %0, ptr %3, align 8
  store i64 %1, ptr %4, align 8
  %5 = load ptr, ptr %3, align 8
  %6 = getelementptr inbounds nuw %"class.llvm::ArrayRef.389", ptr %5, i32 0, i32 0
  %7 = load ptr, ptr %6, align 8
  %8 = load i64, ptr %4, align 8
  %9 = getelementptr inbounds i32, ptr %7, i64 %8
  ret ptr %9
}

; Function Attrs: mustprogress nounwind uwtable
define linkonce_odr hidden noundef i64 @_ZNK4llvm8ArrayRefIjE4sizeEv(ptr noundef nonnull align 8 dereferenceable(16) %0) #0 comdat align 2 {
  %2 = alloca ptr, align 8
  store ptr %0, ptr %2, align 8
  %3 = load ptr, ptr %2, align 8
  %4 = getelementptr inbounds nuw %"class.llvm::ArrayRef.389", ptr %3, i32 0, i32 1
  %5 = load i64, ptr %4, align 8
  ret i64 %5
}

; Function Attrs: mustprogress nounwind uwtable
define linkonce_odr hidden noundef zeroext i1 @_ZNK4llvm3EVTneES0_(ptr noundef nonnull align 8 dereferenceable(16) %0, i16 %1, ptr %2) #0 comdat align 2 {
  %4 = alloca i1, align 1
  %5 = alloca %"struct.llvm::EVT", align 8
  %6 = alloca ptr, align 8
  %7 = getelementptr inbounds nuw { i16, ptr }, ptr %5, i32 0, i32 0
  store i16 %1, ptr %7, align 8
  %8 = getelementptr inbounds nuw { i16, ptr }, ptr %5, i32 0, i32 1
  store ptr %2, ptr %8, align 8
  store ptr %0, ptr %6, align 8
  %9 = load ptr, ptr %6, align 8
  %10 = getelementptr inbounds nuw %"struct.llvm::EVT", ptr %9, i32 0, i32 0
  %11 = getelementptr inbounds nuw %"class.llvm::MVT", ptr %10, i32 0, i32 0
  %12 = load i16, ptr %11, align 8
  %13 = zext i16 %12 to i32
  %14 = getelementptr inbounds nuw %"struct.llvm::EVT", ptr %5, i32 0, i32 0
  %15 = getelementptr inbounds nuw %"class.llvm::MVT", ptr %14, i32 0, i32 0
  %16 = load i16, ptr %15, align 8
  %17 = zext i16 %16 to i32
  %18 = icmp ne i32 %13, %17
  br i1 %18, label %19, label %20

19:                                               ; preds = %3
  store i1 true, ptr %4, align 1
  br label %33

20:                                               ; preds = %3
  %21 = getelementptr inbounds nuw %"struct.llvm::EVT", ptr %9, i32 0, i32 0
  %22 = getelementptr inbounds nuw %"class.llvm::MVT", ptr %21, i32 0, i32 0
  %23 = load i16, ptr %22, align 8
  %24 = zext i16 %23 to i32
  %25 = icmp eq i32 %24, 0
  br i1 %25, label %26, label %32

26:                                               ; preds = %20
  %27 = getelementptr inbounds nuw %"struct.llvm::EVT", ptr %9, i32 0, i32 1
  %28 = load ptr, ptr %27, align 8
  %29 = getelementptr inbounds nuw %"struct.llvm::EVT", ptr %5, i32 0, i32 1
  %30 = load ptr, ptr %29, align 8
  %31 = icmp ne ptr %28, %30
  store i1 %31, ptr %4, align 1
  br label %33

32:                                               ; preds = %20
  store i1 false, ptr %4, align 1
  br label %33

33:                                               ; preds = %32, %26, %19
  %34 = load i1, ptr %4, align 1
  ret i1 %34
}

; Function Attrs: mustprogress nounwind uwtable
define linkonce_odr hidden void @_ZN4llvm3EVTC2ENS_3MVT15SimpleValueTypeE(ptr noundef nonnull align 8 dereferenceable(16) %0, i16 noundef zeroext %1) unnamed_addr #0 comdat align 2 {
  %3 = alloca ptr, align 8
  %4 = alloca i16, align 2
  store ptr %0, ptr %3, align 8
  store i16 %1, ptr %4, align 2
  %5 = load ptr, ptr %3, align 8
  %6 = getelementptr inbounds nuw %"struct.llvm::EVT", ptr %5, i32 0, i32 0
  %7 = load i16, ptr %4, align 2
  call void @_ZN4llvm3MVTC2ENS0_15SimpleValueTypeE(ptr noundef nonnull align 2 dereferenceable(2) %6, i16 noundef zeroext %7)
  %8 = getelementptr inbounds nuw %"struct.llvm::EVT", ptr %5, i32 0, i32 1
  store ptr null, ptr %8, align 8
  ret void
}

; Function Attrs: mustprogress nounwind uwtable
define linkonce_odr hidden noundef i32 @_ZNK4llvm3EVT23getVectorMinNumElementsEv(ptr noundef nonnull align 8 dereferenceable(16) %0) #0 comdat align 2 {
  %2 = alloca ptr, align 8
  %3 = alloca %"class.llvm::ElementCount", align 4
  store ptr %0, ptr %2, align 8
  %4 = load ptr, ptr %2, align 8
  %5 = call i64 @_ZNK4llvm3EVT21getVectorElementCountEv(ptr noundef nonnull align 8 dereferenceable(16) %4)
  %6 = trunc i64 %5 to i40
  store i40 %6, ptr %3, align 4
  %7 = call noundef i32 @_ZNK4llvm7details23FixedOrScalableQuantityINS_12ElementCountEjE16getKnownMinValueEv(ptr noundef nonnull align 4 dereferenceable(5) %3)
  ret i32 %7
}

; Function Attrs: mustprogress nounwind uwtable
define linkonce_odr hidden { i16, ptr } @_ZNK4llvm3EVT20getVectorElementTypeEv(ptr noundef nonnull align 8 dereferenceable(16) %0) #0 comdat align 2 {
  %2 = alloca %"struct.llvm::EVT", align 8
  %3 = alloca ptr, align 8
  %4 = alloca %"class.llvm::MVT", align 2
  store ptr %0, ptr %3, align 8
  %5 = load ptr, ptr %3, align 8
  %6 = call noundef zeroext i1 @_ZNK4llvm3EVT8isSimpleEv(ptr noundef nonnull align 8 dereferenceable(16) %5)
  br i1 %6, label %7, label %13

7:                                                ; preds = %1
  %8 = getelementptr inbounds nuw %"struct.llvm::EVT", ptr %5, i32 0, i32 0
  %9 = call i16 @_ZNK4llvm3MVT20getVectorElementTypeEv(ptr noundef nonnull align 2 dereferenceable(2) %8)
  %10 = getelementptr inbounds nuw %"class.llvm::MVT", ptr %4, i32 0, i32 0
  store i16 %9, ptr %10, align 2
  %11 = getelementptr inbounds nuw %"class.llvm::MVT", ptr %4, i32 0, i32 0
  %12 = load i16, ptr %11, align 2
  call void @_ZN4llvm3EVTC2ENS_3MVTE(ptr noundef nonnull align 8 dereferenceable(16) %2, i16 %12)
  br label %19

13:                                               ; preds = %1
  %14 = call { i16, ptr } @_ZNK4llvm3EVT28getExtendedVectorElementTypeEv(ptr noundef nonnull align 8 dereferenceable(16) %5)
  %15 = getelementptr inbounds nuw { i16, ptr }, ptr %2, i32 0, i32 0
  %16 = extractvalue { i16, ptr } %14, 0
  store i16 %16, ptr %15, align 8
  %17 = getelementptr inbounds nuw { i16, ptr }, ptr %2, i32 0, i32 1
  %18 = extractvalue { i16, ptr } %14, 1
  store ptr %18, ptr %17, align 8
  br label %19

19:                                               ; preds = %13, %7
  %20 = load { i16, ptr }, ptr %2, align 8
  ret { i16, ptr } %20
}

; Function Attrs: mustprogress nounwind uwtable
define linkonce_odr hidden noundef zeroext i1 @_ZNK4llvm3EVT16isScalableVectorEv(ptr noundef nonnull align 8 dereferenceable(16) %0) #0 comdat align 2 {
  %2 = alloca ptr, align 8
  store ptr %0, ptr %2, align 8
  %3 = load ptr, ptr %2, align 8
  %4 = call noundef zeroext i1 @_ZNK4llvm3EVT8isSimpleEv(ptr noundef nonnull align 8 dereferenceable(16) %3)
  br i1 %4, label %5, label %8

5:                                                ; preds = %1
  %6 = getelementptr inbounds nuw %"struct.llvm::EVT", ptr %3, i32 0, i32 0
  %7 = call noundef zeroext i1 @_ZNK4llvm3MVT16isScalableVectorEv(ptr noundef nonnull align 2 dereferenceable(2) %6)
  br label %10

8:                                                ; preds = %1
  %9 = call noundef zeroext i1 @_ZNK4llvm3EVT24isExtendedScalableVectorEv(ptr noundef nonnull align 8 dereferenceable(16) %3) #17
  br label %10

10:                                               ; preds = %8, %5
  %11 = phi i1 [ %7, %5 ], [ %9, %8 ]
  ret i1 %11
}

; Function Attrs: mustprogress nounwind uwtable
define internal noundef i32 @_ZL18SelectOpcodeFromVTIL14SelectTypeKind0EEjN4llvm3EVTENS1_8ArrayRefIjEE(i16 %0, ptr %1, ptr %2, i64 %3) #0 {
  %5 = alloca i32, align 4
  %6 = alloca %"struct.llvm::EVT", align 8
  %7 = alloca %"class.llvm::ArrayRef.389", align 8
  %8 = alloca %"struct.llvm::EVT", align 8
  %9 = alloca i32, align 4
  %10 = alloca %"struct.llvm::EVT", align 8
  %11 = alloca i32, align 4
  %12 = getelementptr inbounds nuw { i16, ptr }, ptr %6, i32 0, i32 0
  store i16 %0, ptr %12, align 8
  %13 = getelementptr inbounds nuw { i16, ptr }, ptr %6, i32 0, i32 1
  store ptr %1, ptr %13, align 8
  %14 = getelementptr inbounds nuw { ptr, i64 }, ptr %7, i32 0, i32 0
  store ptr %2, ptr %14, align 8
  %15 = getelementptr inbounds nuw { ptr, i64 }, ptr %7, i32 0, i32 1
  store i64 %3, ptr %15, align 8
  %16 = call noundef zeroext i1 @_ZNK4llvm3EVT16isScalableVectorEv(ptr noundef nonnull align 8 dereferenceable(16) %6)
  br i1 %16, label %18, label %17

17:                                               ; preds = %4
  store i32 0, ptr %5, align 4
  br label %51

18:                                               ; preds = %4
  %19 = call { i16, ptr } @_ZNK4llvm3EVT20getVectorElementTypeEv(ptr noundef nonnull align 8 dereferenceable(16) %6)
  %20 = getelementptr inbounds nuw { i16, ptr }, ptr %8, i32 0, i32 0
  %21 = extractvalue { i16, ptr } %19, 0
  store i16 %21, ptr %20, align 8
  %22 = getelementptr inbounds nuw { i16, ptr }, ptr %8, i32 0, i32 1
  %23 = extractvalue { i16, ptr } %19, 1
  store ptr %23, ptr %22, align 8
  %24 = call noundef i32 @_ZNK4llvm3EVT23getVectorMinNumElementsEv(ptr noundef nonnull align 8 dereferenceable(16) %6)
  store i32 %24, ptr %9, align 4
  call void @_ZN4llvm3EVTC2ENS_3MVT15SimpleValueTypeE(ptr noundef nonnull align 8 dereferenceable(16) %10, i16 noundef zeroext 2)
  %25 = getelementptr inbounds nuw { i16, ptr }, ptr %10, i32 0, i32 0
  %26 = load i16, ptr %25, align 8
  %27 = getelementptr inbounds nuw { i16, ptr }, ptr %10, i32 0, i32 1
  %28 = load ptr, ptr %27, align 8
  %29 = call noundef zeroext i1 @_ZNK4llvm3EVTneES0_(ptr noundef nonnull align 8 dereferenceable(16) %8, i16 %26, ptr %28)
  br i1 %29, label %30, label %31

30:                                               ; preds = %18
  store i32 0, ptr %5, align 4
  br label %51

31:                                               ; preds = %18
  %32 = load i32, ptr %9, align 4
  switch i32 %32, label %37 [
    i32 16, label %33
    i32 8, label %34
    i32 4, label %35
    i32 2, label %36
  ]

33:                                               ; preds = %31
  store i32 0, ptr %11, align 4
  br label %38

34:                                               ; preds = %31
  store i32 1, ptr %11, align 4
  br label %38

35:                                               ; preds = %31
  store i32 2, ptr %11, align 4
  br label %38

36:                                               ; preds = %31
  store i32 3, ptr %11, align 4
  br label %38

37:                                               ; preds = %31
  store i32 0, ptr %5, align 4
  br label %51

38:                                               ; preds = %36, %35, %34, %33
  %39 = call noundef i64 @_ZNK4llvm8ArrayRefIjE4sizeEv(ptr noundef nonnull align 8 dereferenceable(16) %7)
  %40 = load i32, ptr %11, align 4
  %41 = zext i32 %40 to i64
  %42 = icmp ule i64 %39, %41
  br i1 %42, label %43, label %44

43:                                               ; preds = %38
  br label %49

44:                                               ; preds = %38
  %45 = load i32, ptr %11, align 4
  %46 = zext i32 %45 to i64
  %47 = call noundef nonnull align 4 dereferenceable(4) ptr @_ZNK4llvm8ArrayRefIjEixEm(ptr noundef nonnull align 8 dereferenceable(16) %7, i64 noundef %46)
  %48 = load i32, ptr %47, align 4
  br label %49

49:                                               ; preds = %44, %43
  %50 = phi i32 [ 0, %43 ], [ %48, %44 ]
  store i32 %50, ptr %5, align 4
  br label %51

51:                                               ; preds = %49, %37, %30, %17
  %52 = load i32, ptr %5, align 4
  ret i32 %52
}