; Function Attrs: mustprogress nounwind uwtable
define internal fastcc noundef i32 @_ZL18SelectOpcodeFromVTIL14SelectTypeKind0EEjN4llvm3EVTENS1_8ArrayRefIjEE(i16 %0, ptr %1, ptr nocapture readonly %2, i64 %3) unnamed_addr #0 {
  %5 = alloca %"struct.llvm::EVT", align 8
  store i16 %0, ptr %5, align 8
  %6 = getelementptr inbounds nuw i8, ptr %5, i64 8
  store ptr %1, ptr %6, align 8
  %.not.i = icmp eq i16 %0, 0
  br i1 %.not.i, label %_ZNK4llvm3EVT16isScalableVectorEv.exit, label %7

7:                                                ; preds = %4
  %8 = add i16 %0, -137
  %spec.select.i.i = icmp ult i16 %8, 53
  br i1 %spec.select.i.i, label %_ZNK4llvm3EVT20getVectorElementTypeEv.exit.thread, label %_ZNK4llvm3EVTneES0_.exit.thread

_ZNK4llvm3EVT16isScalableVectorEv.exit:           ; preds = %4
  %9 = call noundef zeroext i1 @_ZNK4llvm3EVT24isExtendedScalableVectorEv(ptr noundef nonnull align 8 dereferenceable(16) %5) #26
  br i1 %9, label %_ZNK4llvm3EVT20getVectorElementTypeEv.exit, label %_ZNK4llvm3EVTneES0_.exit.thread

_ZNK4llvm3EVT20getVectorElementTypeEv.exit.thread: ; preds = %7
  %10 = zext nneg i16 %0 to i64
  %11 = add nsw i64 %10, -1
  %12 = getelementptr inbounds [240 x i16], ptr @_ZZNK4llvm3MVT20getVectorElementTypeEvE10EltTyTable, i64 0, i64 %11
  %13 = load i16, ptr %12, align 2
  br label %16

_ZNK4llvm3EVT20getVectorElementTypeEv.exit:       ; preds = %_ZNK4llvm3EVT16isScalableVectorEv.exit
  %14 = call { i16, ptr } @_ZNK4llvm3EVT28getExtendedVectorElementTypeEv(ptr noundef nonnull align 8 dereferenceable(16) %5) #22
  %15 = extractvalue { i16, ptr } %14, 0
  %.pre = load i16, ptr %5, align 8
  %.not.i.i = icmp eq i16 %.pre, 0
  br i1 %.not.i.i, label %23, label %16

16:                                               ; preds = %_ZNK4llvm3EVT20getVectorElementTypeEv.exit.thread, %_ZNK4llvm3EVT20getVectorElementTypeEv.exit
  %.sroa.0.0.i16 = phi i16 [ %13, %_ZNK4llvm3EVT20getVectorElementTypeEv.exit.thread ], [ %15, %_ZNK4llvm3EVT20getVectorElementTypeEv.exit ]
  %17 = phi i16 [ %0, %_ZNK4llvm3EVT20getVectorElementTypeEv.exit.thread ], [ %.pre, %_ZNK4llvm3EVT20getVectorElementTypeEv.exit ]
  %18 = zext i16 %17 to i64
  %19 = add nsw i64 %18, -1
  %20 = getelementptr inbounds [240 x i16], ptr @_ZZNK4llvm3MVT23getVectorMinNumElementsEvE10NElemTable, i64 0, i64 %19
  %21 = load i16, ptr %20, align 2
  %22 = add i16 %17, -137
  %spec.select.i.i.i.i = icmp ult i16 %22, 53
  %.sroa.2.0.insert.shift.i.i.i.i = select i1 %spec.select.i.i.i.i, i64 4294967296, i64 0
  %.sroa.0.0.insert.ext.i.i.i.i = zext i16 %21 to i64
  %.sroa.0.0.insert.insert.i.i.i.i = or disjoint i64 %.sroa.2.0.insert.shift.i.i.i.i, %.sroa.0.0.insert.ext.i.i.i.i
  br label %_ZNK4llvm3EVT23getVectorMinNumElementsEv.exit

23:                                               ; preds = %_ZNK4llvm3EVT20getVectorElementTypeEv.exit
  %24 = call i64 @_ZNK4llvm3EVT29getExtendedVectorElementCountEv(ptr noundef nonnull align 8 dereferenceable(16) %5) #26
  br label %_ZNK4llvm3EVT23getVectorMinNumElementsEv.exit

_ZNK4llvm3EVT23getVectorMinNumElementsEv.exit:    ; preds = %16, %23
  %.sroa.0.0.i15 = phi i16 [ %.sroa.0.0.i16, %16 ], [ %15, %23 ]
  %.sroa.0.0.in.i.i = phi i64 [ %.sroa.0.0.insert.insert.i.i.i.i, %16 ], [ %24, %23 ]
  %.not.i7 = icmp eq i16 %.sroa.0.0.i15, 2
  br i1 %.not.i7, label %_ZNK4llvm3EVTneES0_.exit, label %_ZNK4llvm3EVTneES0_.exit.thread

_ZNK4llvm3EVTneES0_.exit:                         ; preds = %_ZNK4llvm3EVT23getVectorMinNumElementsEv.exit
  %.sroa.0.0.extract.trunc.i = trunc i64 %.sroa.0.0.in.i.i to i32
  %25 = add i32 %.sroa.0.0.extract.trunc.i, -2
  %26 = call i32 @llvm.fshl.i32(i32 %25, i32 %25, i32 31)
  %27 = icmp ult i32 %26, 8
  br i1 %27, label %switch.hole_check, label %_ZNK4llvm3EVTneES0_.exit.thread

switch.hole_check:                                ; preds = %_ZNK4llvm3EVTneES0_.exit
  %switch.maskindex = trunc nuw i32 %26 to i8
  %switch.shifted = lshr i8 -117, %switch.maskindex
  %switch.lobit = trunc i8 %switch.shifted to i1
  br i1 %switch.lobit, label %switch.lookup, label %_ZNK4llvm3EVTneES0_.exit.thread

switch.lookup:                                    ; preds = %switch.hole_check
  %28 = zext nneg i32 %26 to i64
  %switch.gep = getelementptr inbounds [8 x i64], ptr @switch.table._ZL18SelectOpcodeFromVTIL14SelectTypeKind2EEjN4llvm3EVTENS1_8ArrayRefIjEE, i64 0, i64 %28
  %switch.load = load i64, ptr %switch.gep, align 8
  %.not = icmp ugt i64 %3, %switch.load
  br i1 %.not, label %29, label %_ZNK4llvm3EVTneES0_.exit.thread

29:                                               ; preds = %switch.lookup
  %30 = getelementptr inbounds i32, ptr %2, i64 %switch.load
  %31 = load i32, ptr %30, align 4
  br label %_ZNK4llvm3EVTneES0_.exit.thread

_ZNK4llvm3EVTneES0_.exit.thread:                  ; preds = %switch.hole_check, %_ZNK4llvm3EVTneES0_.exit, %_ZNK4llvm3EVT23getVectorMinNumElementsEv.exit, %7, %29, %switch.lookup, %_ZNK4llvm3EVT16isScalableVectorEv.exit
  %.04 = phi i32 [ 0, %_ZNK4llvm3EVT16isScalableVectorEv.exit ], [ 0, %_ZNK4llvm3EVTneES0_.exit ], [ %31, %29 ], [ 0, %switch.lookup ], [ 0, %7 ], [ 0, %_ZNK4llvm3EVT23getVectorMinNumElementsEv.exit ], [ 0, %switch.hole_check ]
  ret i32 %.04
}